target datalayout = "e-m:e-p270:32:32-p271:32:32-p272:64:64-i64:64-i128:128-f80:128-n8:16:32:64-S128"
target triple = "x86_64-pc-linux-gnu"

%"class.cv::ocl::KernelArg" = type { i32, ptr, ptr, i64, i32, i32 }

; Function Attrs: mustprogress uwtable
define void @_ZN2cv3ocl9KernelArgC2EiPNS_4UMatEiiPKvm(ptr noundef nonnull align 8 dereferenceable(40) %0, i32 noundef %1, ptr noundef %2, i32 noundef %3, i32 noundef %4, ptr noundef %5, i64 noundef %6) unnamed_addr #1 align 2 {
  %8 = alloca ptr, align 8
  %9 = alloca i32, align 4
  %10 = alloca ptr, align 8
  %11 = alloca i32, align 4
  %12 = alloca i32, align 4
  %13 = alloca ptr, align 8
  %14 = alloca i64, align 8
  store ptr %0, ptr %8, align 8, !tbaa !48
  store i32 %1, ptr %9, align 4, !tbaa !24
  store ptr %2, ptr %10, align 8, !tbaa !41
  store i32 %3, ptr %11, align 4, !tbaa !24
  store i32 %4, ptr %12, align 4, !tbaa !24
  store ptr %5, ptr %13, align 8, !tbaa !13
  store i64 %6, ptr %14, align 8, !tbaa !26
  %15 = load ptr, ptr %8, align 8
  %16 = getelementptr inbounds nuw %"class.cv::ocl::KernelArg", ptr %15, i32 0, i32 0
  %17 = load i32, ptr %9, align 4, !tbaa !24
  store i32 %17, ptr %16, align 8, !tbaa !50
  %18 = getelementptr inbounds nuw %"class.cv::ocl::KernelArg", ptr %15, i32 0, i32 1
  %19 = load ptr, ptr %10, align 8, !tbaa !41
  store ptr %19, ptr %18, align 8, !tbaa !52
  %20 = getelementptr inbounds nuw %"class.cv::ocl::KernelArg", ptr %15, i32 0, i32 2
  %21 = load ptr, ptr %13, align 8, !tbaa !13
  store ptr %21, ptr %20, align 8, !tbaa !53
  %22 = getelementptr inbounds nuw %"class.cv::ocl::KernelArg", ptr %15, i32 0, i32 3
  %23 = load i64, ptr %14, align 8, !tbaa !26
  store i64 %23, ptr %22, align 8, !tbaa !54
  %24 = getelementptr inbounds nuw %"class.cv::ocl::KernelArg", ptr %15, i32 0, i32 4
  %25 = load i32, ptr %11, align 4, !tbaa !24
  store i32 %25, ptr %24, align 8, !tbaa !55
  %26 = getelementptr inbounds nuw %"class.cv::ocl::KernelArg", ptr %15, i32 0, i32 5
  %27 = load i32, ptr %12, align 4, !tbaa !24
  store i32 %27, ptr %26, align 4, !tbaa !56
  call void @_ZN2cv3oclL12throw_no_oclEv() #17
  unreachable
}