; Function Attrs: mustprogress noreturn uwtable
define void @_ZN2cv3ocl9KernelArgC2EiPNS_4UMatEiiPKvm(ptr noundef nonnull writeonly align 8 captures(none) dereferenceable(40) initializes((0, 4), (8, 40)) %0, i32 noundef %1, ptr noundef %2, i32 noundef %3, i32 noundef %4, ptr noundef %5, i64 noundef %6) unnamed_addr #2 align 2 {
  store i32 %1, ptr %0, align 8, !tbaa !28
  %8 = getelementptr inbounds nuw i8, ptr %0, i64 8
  store ptr %2, ptr %8, align 8, !tbaa !34
  %9 = getelementptr inbounds nuw i8, ptr %0, i64 16
  store ptr %5, ptr %9, align 8, !tbaa !35
  %10 = getelementptr inbounds nuw i8, ptr %0, i64 24
  store i64 %6, ptr %10, align 8, !tbaa !36
  %11 = getelementptr inbounds nuw i8, ptr %0, i64 32
  store i32 %3, ptr %11, align 8, !tbaa !32
  %12 = getelementptr inbounds nuw i8, ptr %0, i64 36
  store i32 %4, ptr %12, align 4, !tbaa !33
  tail call fastcc void @_ZN2cv3oclL12throw_no_oclEv() #14
  unreachable
}